; ModuleID = 'source-C-CXX/61/392.c'
source_filename = "source-C-CXX/61/392.c"
target datalayout = "e-m:e-p270:32:32-p271:32:32-p272:64:64-i64:64-f80:128-n8:16:32:64-S128"
target triple = "x86_64-pc-linux-gnu"

@.str = private unnamed_addr constant [3 x i8] c"%s\00", align 1

; Function Attrs: nounwind sspstrong uwtable
define dso_local i32 @main() local_unnamed_addr #0 {
  %1 = alloca [300 x i8], align 16
  %2 = getelementptr inbounds [300 x i8], [300 x i8]* %1, i64 0, i64 0
  call void @llvm.lifetime.start.p0i8(i64 300, i8* nonnull %2) #4
  %3 = call i32 (i8*, ...) bitcast (i32 (...)* @gets to i32 (i8*, ...)*)(i8* nonnull %2) #4
  br label %4

4:                                                ; preds = %34, %0
  %5 = phi i64 [ %35, %34 ], [ 0, %0 ]
  %6 = getelementptr inbounds [300 x i8], [300 x i8]* %1, i64 0, i64 %5
  %7 = load i8, i8* %6, align 1, !tbaa !5
  switch i8 %7, label %34 [
    i8 0, label %36
    i8 32, label %8
  ]

8:                                                ; preds = %4, %8
  %9 = phi i64 [ %10, %8 ], [ %5, %4 ]
  %10 = add nuw i64 %9, 1
  %11 = getelementptr inbounds [300 x i8], [300 x i8]* %1, i64 0, i64 %10
  %12 = load i8, i8* %11, align 1, !tbaa !5
  %13 = icmp eq i8 %12, 32
  br i1 %13, label %8, label %14, !llvm.loop !8

14:                                               ; preds = %8
  %15 = and i64 %10, 4294967295
  %16 = getelementptr inbounds [300 x i8], [300 x i8]* %1, i64 0, i64 %15
  %17 = load i8, i8* %16, align 1, !tbaa !5
  %18 = icmp eq i8 %17, 0
  br i1 %18, label %29, label %19

19:                                               ; preds = %14, %19
  %20 = phi i64 [ %25, %19 ], [ %15, %14 ]
  %21 = phi i64 [ %23, %19 ], [ %5, %14 ]
  %22 = phi i8 [ %27, %19 ], [ %17, %14 ]
  %23 = add nuw i64 %21, 1
  %24 = getelementptr inbounds [300 x i8], [300 x i8]* %1, i64 0, i64 %23
  store i8 %22, i8* %24, align 1, !tbaa !5
  %25 = add nuw nsw i64 %20, 1
  %26 = getelementptr inbounds [300 x i8], [300 x i8]* %1, i64 0, i64 %25
  %27 = load i8, i8* %26, align 1, !tbaa !5
  %28 = icmp eq i8 %27, 0
  br i1 %28, label %29, label %19, !llvm.loop !10

29:                                               ; preds = %19, %14
  %30 = phi i64 [ %5, %14 ], [ %23, %19 ]
  %31 = add i64 %30, 1
  %32 = and i64 %31, 4294967295
  %33 = getelementptr inbounds [300 x i8], [300 x i8]* %1, i64 0, i64 %32
  store i8 0, i8* %33, align 1, !tbaa !5
  br label %34

34:                                               ; preds = %4, %29
  %35 = add nuw i64 %5, 1
  br label %4, !llvm.loop !11

36:                                               ; preds = %4
  %37 = call i32 (i8*, ...) @printf(i8* nonnull dereferenceable(1) getelementptr inbounds ([3 x i8], [3 x i8]* @.str, i64 0, i64 0), i8* nonnull %2)
  call void @llvm.lifetime.end.p0i8(i64 300, i8* nonnull %2) #4
  ret i32 0
}

; Function Attrs: argmemonly mustprogress nofree nosync nounwind willreturn
declare void @llvm.lifetime.start.p0i8(i64 immarg, i8* nocapture) #1

declare i32 @gets(...) local_unnamed_addr #2

; Function Attrs: nofree nounwind
declare noundef i32 @printf(i8* nocapture noundef readonly, ...) local_unnamed_addr #3

; Function Attrs: argmemonly mustprogress nofree nosync nounwind willreturn
declare void @llvm.lifetime.end.p0i8(i64 immarg, i8* nocapture) #1


!llvm.module.flags = !{!0, !1, !2, !3}
!llvm.ident = !{!4}

!0 = !{i32 1, !"wchar_size", i32 4}
!1 = !{i32 7, !"PIC Level", i32 2}
!2 = !{i32 7, !"PIE Level", i32 2}
!3 = !{i32 7, !"uwtable", i32 1}
!4 = !{!"clang version 13.0.0"}
!5 = !{!6, !6, i64 0}
!6 = !{!"omnipotent char", !7, i64 0}
!7 = !{!"Simple C/C++ TBAA"}
!8 = distinct !{!8, !9}
!9 = !{!"llvm.loop.mustprogress"}
!10 = distinct !{!10, !9}
!11 = distinct !{!11, !9}
